(lp0
(lp1
(I29
I1
tp2
a(I78
I1
tp3
a(I195
I1
tp4
a(I229
I1
tp5
a(I395
I1
tp6
aa(lp7
(I90
I1
tp8
a(I132
I1
tp9
a(I165
I1
tp10
a(I246
I1
tp11
a(I267
I1
tp12
a(I287
I1
tp13
a(I295
I1
tp14
a(I309
I1
tp15
a(I342
I1
tp16
a(I345
I1
tp17
a(I363
I1
tp18
a(I433
I1
tp19
aa(lp20
(I6
I1
tp21
a(I40
I1
tp22
a(I129
I1
tp23
a(I205
I1
tp24
a(I224
I1
tp25
a(I285
I1
tp26
a(I333
I1
tp27
a(I374
I1
tp28
a(I377
I1
tp29
a(I469
I2
tp30
a(I481
I1
tp31
aa(lp32
(I50
I1
tp33
a(I66
I1
tp34
a(I68
I1
tp35
a(I189
I1
tp36
a(I257
I1
tp37
a(I306
I1
tp38
a(I349
I1
tp39
aa(lp40
(I9
I1
tp41
a(I10
I1
tp42
a(I12
I1
tp43
a(I19
I2
tp44
a(I31
I1
tp45
a(I53
I1
tp46
a(I76
I1
tp47
a(I79
I1
tp48
a(I123
I1
tp49
a(I141
I1
tp50
a(I148
I1
tp51
a(I154
I1
tp52
a(I162
I1
tp53
a(I200
I1
tp54
a(I206
I1
tp55
a(I230
I1
tp56
a(I263
I1
tp57
a(I278
I1
tp58
a(I299
I1
tp59
a(I301
I1
tp60
a(I312
I1
tp61
a(I328
I1
tp62
a(I340
I1
tp63
a(I346
I1
tp64
a(I380
I1
tp65
a(I384
I1
tp66
a(I405
I1
tp67
a(I414
I1
tp68
a(I415
I1
tp69
a(I417
I1
tp70
a(I427
I1
tp71
a(I450
I1
tp72
a(I454
I1
tp73
aa(lp74
(I17
I1
tp75
a(I43
I1
tp76
a(I73
I1
tp77
a(I140
I1
tp78
a(I280
I1
tp79
a(I336
I1
tp80
a(I374
I1
tp81
a(I390
I1
tp82
a(I395
I1
tp83
aa(lp84
(I19
I1
tp85
a(I43
I1
tp86
a(I105
I1
tp87
a(I140
I1
tp88
a(I166
I1
tp89
a(I326
I1
tp90
a(I345
I1
tp91
a(I360
I1
tp92
a(I452
I1
tp93
a(I469
I1
tp94
aa(lp95
(I0
I1
tp96
a(I7
I1
tp97
a(I14
I1
tp98
a(I18
I3
tp99
a(I22
I2
tp100
a(I31
I1
tp101
a(I35
I1
tp102
a(I45
I1
tp103
a(I49
I1
tp104
a(I62
I1
tp105
a(I67
I1
tp106
a(I97
I1
tp107
a(I98
I1
tp108
a(I104
I2
tp109
a(I114
I2
tp110
a(I125
I2
tp111
a(I130
I1
tp112
a(I135
I1
tp113
a(I141
I1
tp114
a(I189
I1
tp115
a(I203
I1
tp116
a(I214
I1
tp117
a(I217
I2
tp118
a(I224
I1
tp119
a(I227
I1
tp120
a(I254
I1
tp121
a(I277
I1
tp122
a(I279
I1
tp123
a(I297
I1
tp124
a(I308
I1
tp125
a(I309
I1
tp126
a(I313
I1
tp127
a(I317
I1
tp128
a(I323
I1
tp129
a(I338
I2
tp130
a(I346
I1
tp131
a(I358
I1
tp132
a(I371
I1
tp133
a(I381
I1
tp134
a(I389
I1
tp135
a(I391
I1
tp136
a(I392
I1
tp137
a(I394
I1
tp138
a(I405
I1
tp139
a(I421
I1
tp140
a(I431
I1
tp141
a(I456
I2
tp142
a(I459
I1
tp143
a(I467
I1
tp144
a(I471
I3
tp145
a(I484
I1
tp146
aa(lp147
(I31
I1
tp148
a(I50
I1
tp149
a(I124
I2
tp150
a(I147
I1
tp151
a(I160
I1
tp152
a(I224
I1
tp153
a(I234
I1
tp154
a(I268
I1
tp155
a(I282
I1
tp156
a(I330
I1
tp157
a(I335
I1
tp158
a(I358
I1
tp159
a(I436
I1
tp160
a(I446
I1
tp161
a(I456
I1
tp162
a(I474
I1
tp163
aa(lp164
(I139
I1
tp165
a(I212
I1
tp166
a(I220
I1
tp167
a(I247
I2
tp168
a(I253
I1
tp169
a(I346
I1
tp170
a(I411
I1
tp171
a(I456
I1
tp172
aa(lp173
(I22
I4
tp174
a(I26
I1
tp175
a(I27
I1
tp176
a(I31
I6
tp177
a(I34
I3
tp178
a(I36
I1
tp179
a(I37
I2
tp180
a(I38
I1
tp181
a(I49
I1
tp182
a(I51
I2
tp183
a(I64
I1
tp184
a(I65
I1
tp185
a(I72
I2
tp186
a(I74
I1
tp187
a(I87
I1
tp188
a(I100
I1
tp189
a(I122
I1
tp190
a(I142
I1
tp191
a(I144
I1
tp192
a(I162
I1
tp193
a(I169
I1
tp194
a(I174
I1
tp195
a(I189
I3
tp196
a(I193
I2
tp197
a(I198
I1
tp198
a(I200
I1
tp199
a(I213
I1
tp200
a(I214
I1
tp201
a(I218
I2
tp202
a(I233
I1
tp203
a(I235
I1
tp204
a(I239
I1
tp205
a(I246
I1
tp206
a(I248
I2
tp207
a(I251
I1
tp208
a(I256
I1
tp209
a(I270
I1
tp210
a(I285
I1
tp211
a(I288
I1
tp212
a(I291
I1
tp213
a(I308
I1
tp214
a(I311
I1
tp215
a(I317
I1
tp216
a(I318
I1
tp217
a(I319
I1
tp218
a(I331
I2
tp219
a(I338
I1
tp220
a(I339
I1
tp221
a(I344
I3
tp222
a(I355
I1
tp223
a(I356
I1
tp224
a(I365
I1
tp225
a(I374
I1
tp226
a(I395
I1
tp227
a(I396
I1
tp228
a(I398
I1
tp229
a(I405
I1
tp230
a(I408
I1
tp231
a(I411
I1
tp232
a(I413
I1
tp233
a(I420
I1
tp234
a(I428
I1
tp235
a(I435
I1
tp236
a(I444
I1
tp237
a(I453
I1
tp238
a(I456
I5
tp239
a(I458
I1
tp240
a(I479
I4
tp241
aa(lp242
(I4
I1
tp243
a(I31
I2
tp244
a(I36
I1
tp245
a(I38
I2
tp246
a(I45
I1
tp247
a(I81
I1
tp248
a(I180
I1
tp249
a(I232
I1
tp250
a(I284
I1
tp251
a(I305
I1
tp252
a(I308
I3
tp253
a(I326
I1
tp254
a(I333
I2
tp255
a(I334
I1
tp256
a(I342
I1
tp257
a(I372
I2
tp258
a(I396
I1
tp259
a(I401
I1
tp260
aa(lp261
(I16
I2
tp262
a(I51
I1
tp263
a(I62
I1
tp264
a(I138
I1
tp265
a(I182
I1
tp266
a(I209
I1
tp267
a(I293
I1
tp268
a(I333
I1
tp269
a(I395
I1
tp270
a(I416
I1
tp271
a(I432
I3
tp272
a(I450
I1
tp273
aa(lp274
(I3
I1
tp275
a(I31
I2
tp276
a(I36
I1
tp277
a(I63
I1
tp278
a(I111
I1
tp279
a(I126
I1
tp280
a(I141
I1
tp281
a(I164
I1
tp282
a(I172
I1
tp283
a(I186
I1
tp284
a(I214
I1
tp285
a(I237
I1
tp286
a(I264
I1
tp287
a(I281
I1
tp288
a(I314
I1
tp289
a(I367
I1
tp290
a(I424
I1
tp291
aa(lp292
(I59
I1
tp293
a(I137
I1
tp294
a(I180
I1
tp295
a(I463
I1
tp296
aa(lp297
(I47
I1
tp298
a(I58
I1
tp299
a(I125
I1
tp300
a(I129
I1
tp301
a(I167
I1
tp302
a(I178
I1
tp303
a(I303
I1
tp304
a(I351
I1
tp305
a(I452
I1
tp306
aa(lp307
(I15
I1
tp308
a(I17
I1
tp309
a(I23
I1
tp310
a(I26
I1
tp311
a(I31
I2
tp312
a(I33
I1
tp313
a(I36
I1
tp314
a(I39
I1
tp315
a(I43
I1
tp316
a(I47
I1
tp317
a(I49
I1
tp318
a(I75
I1
tp319
a(I83
I1
tp320
a(I91
I1
tp321
a(I93
I1
tp322
a(I106
I2
tp323
a(I108
I2
tp324
a(I120
I3
tp325
a(I134
I1
tp326
a(I141
I3
tp327
a(I146
I1
tp328
a(I164
I2
tp329
a(I171
I1
tp330
a(I176
I1
tp331
a(I183
I1
tp332
a(I188
I1
tp333
a(I192
I2
tp334
a(I202
I1
tp335
a(I210
I1
tp336
a(I214
I1
tp337
a(I249
I1
tp338
a(I260
I1
tp339
a(I283
I1
tp340
a(I308
I1
tp341
a(I310
I1
tp342
a(I319
I1
tp343
a(I337
I1
tp344
a(I339
I2
tp345
a(I374
I1
tp346
a(I386
I1
tp347
a(I388
I1
tp348
a(I391
I1
tp349
a(I394
I1
tp350
a(I399
I1
tp351
a(I423
I1
tp352
a(I448
I1
tp353
a(I456
I3
tp354
a(I465
I1
tp355
aa(lp356
(I1
I1
tp357
a(I2
I1
tp358
a(I26
I1
tp359
a(I30
I1
tp360
a(I31
I1
tp361
a(I50
I2
tp362
a(I69
I1
tp363
a(I83
I1
tp364
a(I141
I1
tp365
a(I185
I1
tp366
a(I201
I1
tp367
a(I215
I1
tp368
a(I285
I1
tp369
a(I286
I1
tp370
a(I339
I1
tp371
a(I354
I1
tp372
a(I357
I2
tp373
a(I371
I1
tp374
a(I386
I1
tp375
a(I398
I2
tp376
a(I400
I1
tp377
a(I430
I1
tp378
a(I446
I1
tp379
a(I480
I1
tp380
aa(lp381
(I50
I1
tp382
a(I68
I1
tp383
a(I189
I1
tp384
a(I219
I1
tp385
a(I257
I1
tp386
a(I306
I1
tp387
a(I349
I1
tp388
aa(lp389
(I29
I1
tp390
a(I31
I1
tp391
a(I36
I1
tp392
a(I50
I1
tp393
a(I173
I1
tp394
a(I261
I1
tp395
a(I381
I1
tp396
a(I462
I1
tp397
a(I480
I1
tp398
aa(lp399
(I403
I1
tp400
a(I411
I1
tp401
aa(lp402
(I307
I1
tp403
a(I403
I1
tp404
aa(lp405
(I18
I1
tp406
a(I20
I1
tp407
a(I43
I1
tp408
a(I58
I1
tp409
a(I128
I1
tp410
a(I129
I1
tp411
a(I170
I1
tp412
a(I186
I1
tp413
a(I222
I1
tp414
a(I285
I1
tp415
a(I297
I1
tp416
a(I307
I1
tp417
a(I377
I1
tp418
a(I382
I1
tp419
a(I411
I1
tp420
a(I451
I1
tp421
a(I456
I3
tp422
a(I464
I1
tp423
a(I471
I1
tp424
aa(lp425
(I31
I1
tp426
a(I125
I2
tp427
a(I173
I1
tp428
a(I223
I1
tp429
a(I224
I1
tp430
a(I271
I1
tp431
a(I327
I1
tp432
a(I339
I1
tp433
a(I381
I1
tp434
a(I447
I1
tp435
a(I477
I1
tp436
aa(lp437
(I31
I1
tp438
a(I89
I1
tp439
a(I117
I1
tp440
a(I177
I1
tp441
a(I211
I1
tp442
a(I221
I1
tp443
a(I252
I1
tp444
a(I266
I1
tp445
a(I273
I1
tp446
a(I408
I1
tp447
a(I477
I1
tp448
aa(lp449
(I4
I1
tp450
a(I7
I3
tp451
a(I24
I1
tp452
a(I31
I1
tp453
a(I44
I1
tp454
a(I46
I1
tp455
a(I52
I1
tp456
a(I70
I1
tp457
a(I74
I2
tp458
a(I82
I1
tp459
a(I84
I1
tp460
a(I85
I1
tp461
a(I86
I1
tp462
a(I88
I1
tp463
a(I96
I1
tp464
a(I99
I1
tp465
a(I102
I1
tp466
a(I109
I2
tp467
a(I121
I1
tp468
a(I129
I1
tp469
a(I130
I2
tp470
a(I131
I1
tp471
a(I133
I1
tp472
a(I136
I1
tp473
a(I141
I1
tp474
a(I143
I1
tp475
a(I151
I2
tp476
a(I156
I1
tp477
a(I175
I1
tp478
a(I179
I1
tp479
a(I186
I1
tp480
a(I190
I1
tp481
a(I197
I1
tp482
a(I206
I1
tp483
a(I207
I1
tp484
a(I208
I1
tp485
a(I210
I1
tp486
a(I216
I1
tp487
a(I226
I1
tp488
a(I231
I1
tp489
a(I239
I1
tp490
a(I242
I1
tp491
a(I244
I1
tp492
a(I245
I1
tp493
a(I258
I1
tp494
a(I292
I1
tp495
a(I296
I3
tp496
a(I308
I4
tp497
a(I326
I3
tp498
a(I329
I1
tp499
a(I331
I1
tp500
a(I333
I1
tp501
a(I341
I1
tp502
a(I342
I1
tp503
a(I345
I1
tp504
a(I346
I1
tp505
a(I356
I1
tp506
a(I371
I1
tp507
a(I378
I1
tp508
a(I387
I1
tp509
a(I391
I2
tp510
a(I395
I1
tp511
a(I402
I1
tp512
a(I403
I1
tp513
a(I404
I1
tp514
a(I414
I2
tp515
a(I415
I1
tp516
a(I429
I1
tp517
a(I439
I1
tp518
a(I455
I1
tp519
a(I458
I2
tp520
a(I469
I1
tp521
aa(lp522
(I7
I2
tp523
a(I11
I1
tp524
a(I21
I1
tp525
a(I28
I1
tp526
a(I31
I7
tp527
a(I38
I2
tp528
a(I49
I1
tp529
a(I60
I1
tp530
a(I61
I4
tp531
a(I62
I2
tp532
a(I63
I2
tp533
a(I95
I1
tp534
a(I96
I1
tp535
a(I97
I2
tp536
a(I113
I1
tp537
a(I119
I1
tp538
a(I133
I1
tp539
a(I145
I1
tp540
a(I150
I1
tp541
a(I151
I1
tp542
a(I152
I1
tp543
a(I153
I1
tp544
a(I158
I1
tp545
a(I161
I1
tp546
a(I164
I1
tp547
a(I172
I1
tp548
a(I186
I3
tp549
a(I191
I2
tp550
a(I199
I1
tp551
a(I207
I3
tp552
a(I210
I1
tp553
a(I214
I3
tp554
a(I216
I1
tp555
a(I223
I1
tp556
a(I225
I1
tp557
a(I226
I2
tp558
a(I228
I1
tp559
a(I238
I1
tp560
a(I240
I2
tp561
a(I248
I6
tp562
a(I250
I1
tp563
a(I254
I1
tp564
a(I276
I1
tp565
a(I280
I2
tp566
a(I284
I1
tp567
a(I285
I1
tp568
a(I290
I1
tp569
a(I292
I1
tp570
a(I296
I1
tp571
a(I308
I2
tp572
a(I315
I1
tp573
a(I319
I1
tp574
a(I321
I2
tp575
a(I324
I2
tp576
a(I325
I1
tp577
a(I338
I1
tp578
a(I359
I1
tp579
a(I361
I1
tp580
a(I373
I1
tp581
a(I376
I1
tp582
a(I385
I1
tp583
a(I388
I1
tp584
a(I390
I1
tp585
a(I391
I5
tp586
a(I396
I2
tp587
a(I405
I1
tp588
a(I406
I1
tp589
a(I414
I2
tp590
a(I416
I1
tp591
a(I422
I1
tp592
a(I426
I2
tp593
a(I429
I1
tp594
a(I431
I2
tp595
a(I448
I1
tp596
a(I460
I1
tp597
a(I466
I1
tp598
a(I470
I1
tp599
a(I478
I1
tp600
a(I482
I1
tp601
aa(lp602
(I7
I1
tp603
a(I31
I1
tp604
a(I36
I1
tp605
a(I48
I1
tp606
a(I78
I1
tp607
a(I121
I1
tp608
a(I141
I1
tp609
a(I164
I1
tp610
a(I186
I1
tp611
a(I220
I3
tp612
a(I244
I1
tp613
a(I302
I1
tp614
a(I309
I1
tp615
a(I318
I1
tp616
a(I339
I1
tp617
a(I350
I1
tp618
a(I352
I1
tp619
a(I367
I1
tp620
a(I377
I1
tp621
a(I397
I1
tp622
a(I405
I1
tp623
a(I411
I1
tp624
a(I458
I1
tp625
aa(lp626
(I32
I1
tp627
a(I77
I1
tp628
a(I91
I1
tp629
a(I99
I1
tp630
a(I115
I1
tp631
a(I184
I1
tp632
a(I196
I1
tp633
a(I200
I1
tp634
a(I204
I1
tp635
a(I224
I2
tp636
a(I235
I2
tp637
a(I236
I1
tp638
a(I241
I1
tp639
a(I255
I1
tp640
a(I332
I1
tp641
a(I333
I1
tp642
a(I362
I1
tp643
a(I364
I1
tp644
a(I369
I1
tp645
a(I371
I1
tp646
a(I390
I1
tp647
a(I410
I1
tp648
a(I411
I1
tp649
a(I412
I1
tp650
a(I437
I1
tp651
a(I457
I1
tp652
a(I469
I1
tp653
a(I475
I1
tp654
aa(lp655
(I5
I1
tp656
a(I49
I1
tp657
a(I70
I1
tp658
a(I77
I1
tp659
a(I85
I1
tp660
a(I149
I1
tp661
a(I189
I1
tp662
a(I206
I2
tp663
a(I265
I2
tp664
a(I271
I1
tp665
a(I272
I1
tp666
a(I275
I1
tp667
a(I304
I1
tp668
a(I309
I1
tp669
a(I316
I1
tp670
a(I318
I1
tp671
a(I322
I1
tp672
a(I330
I1
tp673
a(I346
I1
tp674
a(I347
I1
tp675
a(I371
I1
tp676
a(I375
I1
tp677
a(I376
I1
tp678
a(I381
I1
tp679
a(I393
I1
tp680
a(I409
I1
tp681
a(I411
I1
tp682
a(I419
I1
tp683
a(I434
I1
tp684
a(I438
I1
tp685
a(I456
I2
tp686
a(I461
I1
tp687
aa(lp688
(I4
I1
tp689
a(I22
I1
tp690
a(I31
I1
tp691
a(I71
I1
tp692
a(I112
I1
tp693
a(I157
I1
tp694
a(I163
I1
tp695
a(I200
I1
tp696
a(I201
I1
tp697
a(I236
I1
tp698
a(I243
I1
tp699
a(I302
I1
tp700
a(I309
I1
tp701
a(I405
I1
tp702
a(I411
I1
tp703
a(I418
I2
tp704
a(I442
I1
tp705
a(I456
I1
tp706
a(I473
I1
tp707
aa(lp708
(I8
I1
tp709
a(I13
I1
tp710
a(I31
I1
tp711
a(I36
I2
tp712
a(I41
I1
tp713
a(I42
I1
tp714
a(I54
I1
tp715
a(I55
I1
tp716
a(I56
I1
tp717
a(I74
I1
tp718
a(I86
I1
tp719
a(I94
I1
tp720
a(I98
I1
tp721
a(I100
I1
tp722
a(I102
I1
tp723
a(I103
I1
tp724
a(I107
I1
tp725
a(I116
I1
tp726
a(I118
I1
tp727
a(I125
I1
tp728
a(I127
I1
tp729
a(I141
I1
tp730
a(I155
I1
tp731
a(I159
I2
tp732
a(I162
I1
tp733
a(I164
I2
tp734
a(I168
I1
tp735
a(I175
I1
tp736
a(I181
I1
tp737
a(I186
I1
tp738
a(I187
I1
tp739
a(I207
I5
tp740
a(I214
I1
tp741
a(I235
I2
tp742
a(I258
I1
tp743
a(I259
I1
tp744
a(I262
I2
tp745
a(I269
I2
tp746
a(I285
I1
tp747
a(I286
I1
tp748
a(I289
I2
tp749
a(I291
I1
tp750
a(I294
I1
tp751
a(I298
I1
tp752
a(I300
I1
tp753
a(I304
I1
tp754
a(I326
I1
tp755
a(I339
I2
tp756
a(I343
I1
tp757
a(I348
I1
tp758
a(I353
I1
tp759
a(I354
I3
tp760
a(I366
I1
tp761
a(I368
I1
tp762
a(I370
I1
tp763
a(I379
I2
tp764
a(I383
I1
tp765
a(I405
I2
tp766
a(I407
I1
tp767
a(I414
I2
tp768
a(I440
I1
tp769
a(I441
I2
tp770
a(I445
I1
tp771
a(I449
I1
tp772
a(I456
I3
tp773
a(I468
I1
tp774
a(I472
I1
tp775
a(I476
I1
tp776
aa(lp777
(I92
I1
tp778
a(I105
I1
tp779
a(I110
I1
tp780
a(I186
I1
tp781
a(I276
I1
tp782
a(I354
I1
tp783
a(I425
I1
tp784
a(I443
I1
tp785
aa(lp786
(I36
I1
tp787
a(I43
I1
tp788
a(I49
I1
tp789
a(I71
I1
tp790
a(I80
I1
tp791
a(I97
I1
tp792
a(I222
I1
tp793
a(I224
I1
tp794
a(I285
I1
tp795
a(I291
I1
tp796
a(I320
I1
tp797
a(I330
I1
tp798
a(I332
I1
tp799
a(I391
I1
tp800
a(I396
I1
tp801
a(I430
I1
tp802
a(I437
I1
tp803
a(I483
I1
tp804
aa(lp805
(I25
I1
tp806
a(I31
I1
tp807
a(I57
I1
tp808
a(I101
I1
tp809
a(I194
I1
tp810
a(I195
I1
tp811
a(I274
I1
tp812
a(I408
I1
tp813
aa.